; Function Attrs: mustprogress nounwind uwtable
define void @_ZN3gmx30AnalysisDataDisplacementModule4ImplD2Ev(ptr nocapture noundef nonnull readonly align 8 dereferenceable(80) %0) unnamed_addr #7 align 2 personality ptr @__gxx_personality_v0 {
  %2 = getelementptr inbounds i8, ptr %0, i64 40
  %3 = load ptr, ptr %2, align 8
  invoke void @_Z9save_freePKcS0_iPv(ptr noundef nonnull @.str, ptr noundef nonnull @.str.1, i32 noundef 120, ptr noundef %3)
          to label %_ZL14gmx_sfree_implIfEvPKcS1_iPT_.exit unwind label %7

_ZL14gmx_sfree_implIfEvPKcS1_iPT_.exit:           ; preds = %1
  %4 = getelementptr inbounds i8, ptr %0, i64 48
  %5 = load ptr, ptr %4, align 8
  %.not.i.i.i = icmp eq ptr %5, null
  br i1 %.not.i.i.i, label %_ZNSt6vectorIN3gmx17AnalysisDataValueESaIS1_EED2Ev.exit, label %6

6:                                                ; preds = %_ZL14gmx_sfree_implIfEvPKcS1_iPT_.exit
  tail call void @_ZdlPv(ptr noundef nonnull %5) #26
  br label %_ZNSt6vectorIN3gmx17AnalysisDataValueESaIS1_EED2Ev.exit

_ZNSt6vectorIN3gmx17AnalysisDataValueESaIS1_EED2Ev.exit: ; preds = %_ZL14gmx_sfree_implIfEvPKcS1_iPT_.exit, %6
  ret void

7:                                                ; preds = %1
  %8 = landingpad { ptr, i32 }
          catch ptr null
  %9 = extractvalue { ptr, i32 } %8, 0
  tail call void @__clang_call_terminate(ptr %9) #22
  unreachable
}